; Function Attrs: nounwind uwtable
define internal fastcc noundef zeroext i1 @zend_deprecated_dynamic_property(ptr noundef %0, ptr noundef %1) unnamed_addr #0 {
  %3 = load i32, ptr %0, align 4
  %4 = add i32 %3, 1
  store i32 %4, ptr %0, align 4
  %5 = getelementptr inbounds i8, ptr %0, i64 16
  %6 = load ptr, ptr %5, align 8
  %7 = getelementptr inbounds i8, ptr %6, i64 8
  %8 = load ptr, ptr %7, align 8
  %9 = getelementptr inbounds i8, ptr %8, i64 24
  %10 = getelementptr inbounds i8, ptr %1, i64 24
  tail call void (i32, ptr, ...) @zend_error(i32 noundef 8192, ptr noundef nonnull @.str.23, ptr noundef nonnull %9, ptr noundef nonnull %10) #15
  %11 = load i32, ptr %0, align 4
  %12 = icmp ne i32 %11, 0
  tail call void @llvm.assume(i1 %12)
  %13 = add i32 %11, -1
  store i32 %13, ptr %0, align 4
  %14 = icmp ne i32 %13, 0
  br i1 %14, label %22, label %15

15:                                               ; preds = %2
  %16 = load ptr, ptr %5, align 8
  tail call void @zend_objects_store_del(ptr noundef nonnull %0) #15
  %17 = load ptr, ptr getelementptr inbounds (%struct._zend_executor_globals, ptr @executor_globals, i64 0, i32 50), align 8
  %.not = icmp eq ptr %17, null
  br i1 %.not, label %18, label %22

18:                                               ; preds = %15
  %19 = getelementptr inbounds i8, ptr %16, i64 8
  %20 = load ptr, ptr %19, align 8
  %21 = getelementptr inbounds i8, ptr %20, i64 24
  tail call void (ptr, ptr, ...) @zend_throw_error(ptr noundef null, ptr noundef nonnull @.str.22, ptr noundef nonnull %21, ptr noundef nonnull %10) #15
  br label %22

22:                                               ; preds = %2, %15, %18
  ret i1 %14
}